target datalayout = "e-m:e-p270:32:32-p271:32:32-p272:64:64-i64:64-i128:128-f80:128-n8:16:32:64-S128"
target triple = "x86_64-pc-linux-gnu"

%"class.boost::filesystem::path" = type { %"class.std::__cxx11::basic_string" }
%"class.std::__cxx11::basic_string" = type { %"struct.std::__cxx11::basic_string<char>::_Alloc_hider", i64, %union.anon }
%"struct.std::__cxx11::basic_string<char>::_Alloc_hider" = type { ptr }
%union.anon = type { i64, [8 x i8] }

; Function Attrs: inlinehint mustprogress nounwind uwtable
define internal noundef i64 @_ZN12_GLOBAL__N_114find_separatorEPKcm(ptr noundef %0, i64 noundef %1) #4 {
  %3 = alloca ptr, align 8
  %4 = alloca i64, align 8
  %5 = alloca ptr, align 8
  %6 = alloca i64, align 8
  store ptr %0, ptr %3, align 8, !tbaa !3
  store i64 %1, ptr %4, align 8, !tbaa !7
  call void @llvm.lifetime.start.p0(i64 8, ptr %5) #11
  %7 = load ptr, ptr %3, align 8, !tbaa !3
  %8 = load i64, ptr %4, align 8, !tbaa !7
  %9 = call noundef ptr @memchr(ptr noundef %7, i32 noundef 47, i64 noundef %8) #19
  store ptr %9, ptr %5, align 8, !tbaa !3
  call void @llvm.lifetime.start.p0(i64 8, ptr %6) #11
  %10 = load i64, ptr %4, align 8, !tbaa !7
  store i64 %10, ptr %6, align 8, !tbaa !7
  %11 = load ptr, ptr %5, align 8, !tbaa !3
  %12 = icmp ne ptr %11, null
  %13 = xor i1 %12, true
  %14 = xor i1 %13, true
  %15 = zext i1 %14 to i64
  %16 = call i64 @llvm.expect.i64(i64 %15, i64 1)
  %17 = icmp ne i64 %16, 0
  br i1 %17, label %18, label %24

18:                                               ; preds = %2
  %19 = load ptr, ptr %5, align 8, !tbaa !3
  %20 = load ptr, ptr %3, align 8, !tbaa !3
  %21 = ptrtoint ptr %19 to i64
  %22 = ptrtoint ptr %20 to i64
  %23 = sub i64 %21, %22
  store i64 %23, ptr %6, align 8, !tbaa !7
  br label %24

24:                                               ; preds = %18, %2
  %25 = load i64, ptr %6, align 8, !tbaa !7
  call void @llvm.lifetime.end.p0(i64 8, ptr %6) #11
  call void @llvm.lifetime.end.p0(i64 8, ptr %5) #11
  ret i64 %25
}

; Function Attrs: inlinehint mustprogress nounwind uwtable
define linkonce_odr hidden noundef zeroext i1 @_ZN5boost10filesystem6detail22is_directory_separatorEc(i8 noundef signext %0) #4 comdat {
  %2 = alloca i8, align 1
  store i8 %0, ptr %2, align 1, !tbaa !9
  %3 = load i8, ptr %2, align 1, !tbaa !9
  %4 = sext i8 %3 to i32
  %5 = icmp eq i32 %4, 47
  ret i1 %5
}

; Function Attrs: mustprogress nounwind uwtable
define available_externally noundef ptr @_ZNKSt7__cxx1112basic_stringIcSt11char_traitsIcESaIcEE7_M_dataEv(ptr noundef nonnull align 8 dereferenceable(32) %0) #2 align 2 {
  %2 = alloca ptr, align 8
  store ptr %0, ptr %2, align 8, !tbaa !3
  %3 = load ptr, ptr %2, align 8
  %4 = getelementptr inbounds nuw %"class.std::__cxx11::basic_string", ptr %3, i32 0, i32 0
  %5 = getelementptr inbounds nuw %"struct.std::__cxx11::basic_string<char>::_Alloc_hider", ptr %4, i32 0, i32 0
  %6 = load ptr, ptr %5, align 8, !tbaa !53
  ret ptr %6
}

; Function Attrs: mustprogress nounwind uwtable
define available_externally noundef nonnull align 1 dereferenceable(1) ptr @_ZNKSt7__cxx1112basic_stringIcSt11char_traitsIcESaIcEEixEm(ptr noundef nonnull align 8 dereferenceable(32) %0, i64 noundef %1) #2 align 2 {
  %3 = alloca ptr, align 8
  %4 = alloca i64, align 8
  store ptr %0, ptr %3, align 8, !tbaa !3
  store i64 %1, ptr %4, align 8, !tbaa !7
  %5 = load ptr, ptr %3, align 8
  br label %6

6:                                                ; preds = %2
  br label %7

7:                                                ; preds = %6
  br label %8

8:                                                ; preds = %7
  %9 = call noundef ptr @_ZNKSt7__cxx1112basic_stringIcSt11char_traitsIcESaIcEE7_M_dataEv(ptr noundef nonnull align 8 dereferenceable(32) %5)
  %10 = load i64, ptr %4, align 8, !tbaa !7
  %11 = getelementptr inbounds nuw i8, ptr %9, i64 %10
  ret ptr %11
}

; Function Attrs: inlinehint mustprogress nounwind uwtable
define internal noundef i64 @_ZN12_GLOBAL__N_118find_filename_sizeERKNSt7__cxx1112basic_stringIcSt11char_traitsIcESaIcEEEmm(ptr noundef nonnull align 8 dereferenceable(32) %0, i64 noundef %1, i64 noundef %2) #4 {
  %4 = alloca ptr, align 8
  %5 = alloca i64, align 8
  %6 = alloca i64, align 8
  %7 = alloca i64, align 8
  store ptr %0, ptr %4, align 8, !tbaa !3
  store i64 %1, ptr %5, align 8, !tbaa !7
  store i64 %2, ptr %6, align 8, !tbaa !7
  call void @llvm.lifetime.start.p0(i64 8, ptr %7) #11
  %8 = load i64, ptr %6, align 8, !tbaa !7
  store i64 %8, ptr %7, align 8, !tbaa !7
  br label %9

9:                                                ; preds = %24, %3
  %10 = load i64, ptr %7, align 8, !tbaa !7
  %11 = load i64, ptr %5, align 8, !tbaa !7
  %12 = icmp ugt i64 %10, %11
  br i1 %12, label %13, label %25

13:                                               ; preds = %9
  %14 = load i64, ptr %7, align 8, !tbaa !7
  %15 = add i64 %14, -1
  store i64 %15, ptr %7, align 8, !tbaa !7
  %16 = load ptr, ptr %4, align 8, !tbaa !3
  %17 = load i64, ptr %7, align 8, !tbaa !7
  %18 = call noundef nonnull align 1 dereferenceable(1) ptr @_ZNKSt7__cxx1112basic_stringIcSt11char_traitsIcESaIcEEixEm(ptr noundef nonnull align 8 dereferenceable(32) %16, i64 noundef %17) #11
  %19 = load i8, ptr %18, align 1, !tbaa !9
  %20 = call noundef zeroext i1 @_ZN5boost10filesystem6detail22is_directory_separatorEc(i8 noundef signext %19) #11
  br i1 %20, label %21, label %24

21:                                               ; preds = %13
  %22 = load i64, ptr %7, align 8, !tbaa !7
  %23 = add i64 %22, 1
  store i64 %23, ptr %7, align 8, !tbaa !7
  br label %25

24:                                               ; preds = %13
  br label %9, !llvm.loop !21

25:                                               ; preds = %21, %9
  %26 = load i64, ptr %6, align 8, !tbaa !7
  %27 = load i64, ptr %7, align 8, !tbaa !7
  %28 = sub i64 %26, %27
  call void @llvm.lifetime.end.p0(i64 8, ptr %7) #11
  ret i64 %28
}

; Function Attrs: mustprogress nounwind uwtable
define internal noundef i64 @_ZN12_GLOBAL__N_125find_root_directory_startEPKcmRm(ptr noundef %0, i64 noundef %1, ptr noundef nonnull align 8 dereferenceable(8) %2) #2 {
  %4 = alloca i64, align 8
  %5 = alloca ptr, align 8
  %6 = alloca i64, align 8
  %7 = alloca ptr, align 8
  %8 = alloca i8, align 1
  %9 = alloca i64, align 8
  %10 = alloca i32, align 4
  store ptr %0, ptr %5, align 8, !tbaa !3
  store i64 %1, ptr %6, align 8, !tbaa !7
  store ptr %2, ptr %7, align 8, !tbaa !3
  %11 = load ptr, ptr %7, align 8, !tbaa !3
  store i64 0, ptr %11, align 8, !tbaa !7
  %12 = load i64, ptr %6, align 8, !tbaa !7
  %13 = icmp eq i64 %12, 0
  br i1 %13, label %14, label %15

14:                                               ; preds = %3
  store i64 0, ptr %4, align 8
  br label %67

15:                                               ; preds = %3
  call void @llvm.lifetime.start.p0(i64 1, ptr %8) #11
  store i8 0, ptr %8, align 1, !tbaa !12
  call void @llvm.lifetime.start.p0(i64 8, ptr %9) #11
  store i64 0, ptr %9, align 8, !tbaa !7
  %16 = load ptr, ptr %5, align 8, !tbaa !3
  %17 = getelementptr inbounds i8, ptr %16, i64 0
  %18 = load i8, ptr %17, align 1, !tbaa !9
  %19 = call noundef zeroext i1 @_ZN5boost10filesystem6detail22is_directory_separatorEc(i8 noundef signext %18) #11
  br i1 %19, label %20, label %43

20:                                               ; preds = %15
  %21 = load i64, ptr %6, align 8, !tbaa !7
  %22 = icmp uge i64 %21, 2
  br i1 %22, label %23, label %42

23:                                               ; preds = %20
  %24 = load ptr, ptr %5, align 8, !tbaa !3
  %25 = getelementptr inbounds i8, ptr %24, i64 1
  %26 = load i8, ptr %25, align 1, !tbaa !9
  %27 = call noundef zeroext i1 @_ZN5boost10filesystem6detail22is_directory_separatorEc(i8 noundef signext %26) #11
  br i1 %27, label %28, label %42

28:                                               ; preds = %23
  %29 = load i64, ptr %6, align 8, !tbaa !7
  %30 = icmp eq i64 %29, 2
  br i1 %30, label %31, label %33

31:                                               ; preds = %28
  %32 = load ptr, ptr %7, align 8, !tbaa !3
  store i64 2, ptr %32, align 8, !tbaa !7
  store i64 2, ptr %4, align 8
  store i32 1, ptr %10, align 4
  br label %66

33:                                               ; preds = %28
  %34 = load ptr, ptr %5, align 8, !tbaa !3
  %35 = getelementptr inbounds i8, ptr %34, i64 2
  %36 = load i8, ptr %35, align 1, !tbaa !9
  %37 = call noundef zeroext i1 @_ZN5boost10filesystem6detail22is_directory_separatorEc(i8 noundef signext %36) #11
  br i1 %37, label %38, label %39

38:                                               ; preds = %33
  store i64 0, ptr %4, align 8
  store i32 1, ptr %10, align 4
  br label %66

39:                                               ; preds = %33
  store i8 1, ptr %8, align 1, !tbaa !12
  %40 = load i64, ptr %9, align 8, !tbaa !7
  %41 = add i64 %40, 2
  store i64 %41, ptr %9, align 8, !tbaa !7
  br label %49

42:                                               ; preds = %23, %20
  store i64 0, ptr %4, align 8
  store i32 1, ptr %10, align 4
  br label %66

43:                                               ; preds = %15
  %44 = load i8, ptr %8, align 1, !tbaa !12, !range !16, !noundef !17
  %45 = trunc i8 %44 to i1
  br i1 %45, label %48, label %46

46:                                               ; preds = %43
  %47 = load i64, ptr %6, align 8, !tbaa !7
  store i64 %47, ptr %4, align 8
  store i32 1, ptr %10, align 4
  br label %66

48:                                               ; preds = %43
  br label %49

49:                                               ; preds = %48, %39
  %50 = load ptr, ptr %5, align 8, !tbaa !3
  %51 = load i64, ptr %9, align 8, !tbaa !7
  %52 = getelementptr inbounds nuw i8, ptr %50, i64 %51
  %53 = load i64, ptr %6, align 8, !tbaa !7
  %54 = load i64, ptr %9, align 8, !tbaa !7
  %55 = sub i64 %53, %54
  %56 = call noundef i64 @_ZN12_GLOBAL__N_114find_separatorEPKcm(ptr noundef %52, i64 noundef %55) #11
  %57 = load i64, ptr %9, align 8, !tbaa !7
  %58 = add i64 %57, %56
  store i64 %58, ptr %9, align 8, !tbaa !7
  %59 = load i8, ptr %8, align 1, !tbaa !12, !range !16, !noundef !17
  %60 = trunc i8 %59 to i1
  br i1 %60, label %61, label %64

61:                                               ; preds = %49
  %62 = load i64, ptr %9, align 8, !tbaa !7
  %63 = load ptr, ptr %7, align 8, !tbaa !3
  store i64 %62, ptr %63, align 8, !tbaa !7
  br label %64

64:                                               ; preds = %61, %49
  %65 = load i64, ptr %9, align 8, !tbaa !7
  store i64 %65, ptr %4, align 8
  store i32 1, ptr %10, align 4
  br label %66

66:                                               ; preds = %64, %46, %42, %38, %31
  call void @llvm.lifetime.end.p0(i64 8, ptr %9) #11
  call void @llvm.lifetime.end.p0(i64 1, ptr %8) #11
  br label %67

67:                                               ; preds = %66, %14
  %68 = load i64, ptr %4, align 8
  ret i64 %68
}

; Function Attrs: mustprogress nounwind uwtable
define available_externally noundef ptr @_ZNKSt7__cxx1112basic_stringIcSt11char_traitsIcESaIcEE5c_strEv(ptr noundef nonnull align 8 dereferenceable(32) %0) #2 align 2 {
  %2 = alloca ptr, align 8
  store ptr %0, ptr %2, align 8, !tbaa !3
  %3 = load ptr, ptr %2, align 8
  %4 = call noundef ptr @_ZNKSt7__cxx1112basic_stringIcSt11char_traitsIcESaIcEE7_M_dataEv(ptr noundef nonnull align 8 dereferenceable(32) %3)
  ret ptr %4
}

; Function Attrs: mustprogress nounwind uwtable
define available_externally noundef i64 @_ZNKSt7__cxx1112basic_stringIcSt11char_traitsIcESaIcEE4sizeEv(ptr noundef nonnull align 8 dereferenceable(32) %0) #2 align 2 {
  %2 = alloca ptr, align 8
  store ptr %0, ptr %2, align 8, !tbaa !3
  %3 = load ptr, ptr %2, align 8
  %4 = getelementptr inbounds nuw %"class.std::__cxx11::basic_string", ptr %3, i32 0, i32 1
  %5 = load i64, ptr %4, align 8, !tbaa !18
  ret i64 %5
}

; Function Attrs: mustprogress uwtable
define noundef i64 @_ZN5boost10filesystem6detail15path_algorithms22find_extension_v4_sizeERKNS0_4pathE(ptr noundef nonnull align 8 dereferenceable(32) %0) #3 align 2 {
  %2 = alloca i64, align 8
  %3 = alloca ptr, align 8
  %4 = alloca i64, align 8
  %5 = alloca i64, align 8
  %6 = alloca i64, align 8
  %7 = alloca i64, align 8
  %8 = alloca i64, align 8
  %9 = alloca i32, align 4
  store ptr %0, ptr %3, align 8, !tbaa !3
  call void @llvm.lifetime.start.p0(i64 8, ptr %4) #11
  %10 = load ptr, ptr %3, align 8, !tbaa !3
  %11 = getelementptr inbounds nuw %"class.boost::filesystem::path", ptr %10, i32 0, i32 0
  %12 = call noundef i64 @_ZNKSt7__cxx1112basic_stringIcSt11char_traitsIcESaIcEE4sizeEv(ptr noundef nonnull align 8 dereferenceable(32) %11) #11
  store i64 %12, ptr %4, align 8, !tbaa !7
  call void @llvm.lifetime.start.p0(i64 8, ptr %5) #11
  store i64 0, ptr %5, align 8, !tbaa !7
  %13 = load ptr, ptr %3, align 8, !tbaa !3
  %14 = getelementptr inbounds nuw %"class.boost::filesystem::path", ptr %13, i32 0, i32 0
  %15 = call noundef ptr @_ZNKSt7__cxx1112basic_stringIcSt11char_traitsIcESaIcEE5c_strEv(ptr noundef nonnull align 8 dereferenceable(32) %14) #11
  %16 = load i64, ptr %4, align 8, !tbaa !7
  %17 = call noundef i64 @_ZN12_GLOBAL__N_125find_root_directory_startEPKcmRm(ptr noundef %15, i64 noundef %16, ptr noundef nonnull align 8 dereferenceable(8) %5)
  call void @llvm.lifetime.start.p0(i64 8, ptr %6) #11
  %18 = load ptr, ptr %3, align 8, !tbaa !3
  %19 = getelementptr inbounds nuw %"class.boost::filesystem::path", ptr %18, i32 0, i32 0
  %20 = load i64, ptr %5, align 8, !tbaa !7
  %21 = load i64, ptr %4, align 8, !tbaa !7
  %22 = call noundef i64 @_ZN12_GLOBAL__N_118find_filename_sizeERKNSt7__cxx1112basic_stringIcSt11char_traitsIcESaIcEEEmm(ptr noundef nonnull align 8 dereferenceable(32) %19, i64 noundef %20, i64 noundef %21)
  store i64 %22, ptr %6, align 8, !tbaa !7
  call void @llvm.lifetime.start.p0(i64 8, ptr %7) #11
  %23 = load i64, ptr %4, align 8, !tbaa !7
  %24 = load i64, ptr %6, align 8, !tbaa !7
  %25 = sub i64 %23, %24
  store i64 %25, ptr %7, align 8, !tbaa !7
  %26 = load i64, ptr %6, align 8, !tbaa !7
  %27 = icmp ugt i64 %26, 0
  br i1 %27, label %28, label %81

28:                                               ; preds = %1
  %29 = load ptr, ptr %3, align 8, !tbaa !3
  %30 = getelementptr inbounds nuw %"class.boost::filesystem::path", ptr %29, i32 0, i32 0
  %31 = load i64, ptr %7, align 8, !tbaa !7
  %32 = call noundef nonnull align 1 dereferenceable(1) ptr @_ZNKSt7__cxx1112basic_stringIcSt11char_traitsIcESaIcEEixEm(ptr noundef nonnull align 8 dereferenceable(32) %30, i64 noundef %31) #11
  %33 = load i8, ptr %32, align 1, !tbaa !9
  %34 = sext i8 %33 to i32
  %35 = icmp eq i32 %34, 46
  br i1 %35, label %36, label %51

36:                                               ; preds = %28
  %37 = load i64, ptr %6, align 8, !tbaa !7
  %38 = icmp eq i64 %37, 1
  br i1 %38, label %81, label %39

39:                                               ; preds = %36
  %40 = load i64, ptr %6, align 8, !tbaa !7
  %41 = icmp eq i64 %40, 2
  br i1 %41, label %42, label %51

42:                                               ; preds = %39
  %43 = load ptr, ptr %3, align 8, !tbaa !3
  %44 = getelementptr inbounds nuw %"class.boost::filesystem::path", ptr %43, i32 0, i32 0
  %45 = load i64, ptr %7, align 8, !tbaa !7
  %46 = add i64 %45, 1
  %47 = call noundef nonnull align 1 dereferenceable(1) ptr @_ZNKSt7__cxx1112basic_stringIcSt11char_traitsIcESaIcEEixEm(ptr noundef nonnull align 8 dereferenceable(32) %44, i64 noundef %46) #11
  %48 = load i8, ptr %47, align 1, !tbaa !9
  %49 = sext i8 %48 to i32
  %50 = icmp eq i32 %49, 46
  br i1 %50, label %81, label %51

51:                                               ; preds = %42, %39, %28
  call void @llvm.lifetime.start.p0(i64 8, ptr %8) #11
  %52 = load i64, ptr %4, align 8, !tbaa !7
  store i64 %52, ptr %8, align 8, !tbaa !7
  br label %53

53:                                               ; preds = %68, %51
  %54 = load i64, ptr %8, align 8, !tbaa !7
  %55 = load i64, ptr %7, align 8, !tbaa !7
  %56 = icmp ugt i64 %54, %55
  br i1 %56, label %57, label %69

57:                                               ; preds = %53
  %58 = load i64, ptr %8, align 8, !tbaa !7
  %59 = add i64 %58, -1
  store i64 %59, ptr %8, align 8, !tbaa !7
  %60 = load ptr, ptr %3, align 8, !tbaa !3
  %61 = getelementptr inbounds nuw %"class.boost::filesystem::path", ptr %60, i32 0, i32 0
  %62 = load i64, ptr %8, align 8, !tbaa !7
  %63 = call noundef nonnull align 1 dereferenceable(1) ptr @_ZNKSt7__cxx1112basic_stringIcSt11char_traitsIcESaIcEEixEm(ptr noundef nonnull align 8 dereferenceable(32) %61, i64 noundef %62) #11
  %64 = load i8, ptr %63, align 1, !tbaa !9
  %65 = sext i8 %64 to i32
  %66 = icmp eq i32 %65, 46
  br i1 %66, label %67, label %68

67:                                               ; preds = %57
  br label %69

68:                                               ; preds = %57
  br label %53, !llvm.loop !39

69:                                               ; preds = %67, %53
  %70 = load i64, ptr %8, align 8, !tbaa !7
  %71 = load i64, ptr %7, align 8, !tbaa !7
  %72 = icmp ugt i64 %70, %71
  br i1 %72, label %73, label %77

73:                                               ; preds = %69
  %74 = load i64, ptr %4, align 8, !tbaa !7
  %75 = load i64, ptr %8, align 8, !tbaa !7
  %76 = sub i64 %74, %75
  store i64 %76, ptr %2, align 8
  store i32 1, ptr %9, align 4
  br label %78

77:                                               ; preds = %69
  store i32 0, ptr %9, align 4
  br label %78

78:                                               ; preds = %77, %73
  call void @llvm.lifetime.end.p0(i64 8, ptr %8) #11
  %79 = load i32, ptr %9, align 4
  switch i32 %79, label %82 [
    i32 0, label %80
  ]

80:                                               ; preds = %78
  br label %81

81:                                               ; preds = %80, %42, %36, %1
  store i64 0, ptr %2, align 8
  store i32 1, ptr %9, align 4
  br label %82

82:                                               ; preds = %81, %78
  call void @llvm.lifetime.end.p0(i64 8, ptr %7) #11
  call void @llvm.lifetime.end.p0(i64 8, ptr %6) #11
  call void @llvm.lifetime.end.p0(i64 8, ptr %5) #11
  call void @llvm.lifetime.end.p0(i64 8, ptr %4) #11
  %83 = load i64, ptr %2, align 8
  ret i64 %83
}