; Function Attrs: mustprogress nofree nounwind willreturn memory(read, inaccessiblemem: none) uwtable
define noundef i64 @_ZN5boost10filesystem6detail15path_algorithms22find_extension_v4_sizeERKNS0_4pathE(ptr nocapture noundef nonnull readonly align 8 dereferenceable(32) %0) local_unnamed_addr #7 align 2 {
  %2 = getelementptr inbounds nuw i8, ptr %0, i64 8
  %3 = load i64, ptr %2, align 8, !tbaa !10
  %4 = load ptr, ptr %0, align 8
  %5 = icmp eq i64 %3, 0
  br i1 %5, label %_ZN12_GLOBAL__N_125find_root_directory_startEPKcmRm.exit, label %6

6:                                                ; preds = %1
  %7 = load i8, ptr %4, align 1, !tbaa !11
  %8 = icmp ne i8 %7, 47
  %.not.i = icmp eq i64 %3, 1
  %or.cond = or i1 %.not.i, %8
  br i1 %or.cond, label %_ZN12_GLOBAL__N_125find_root_directory_startEPKcmRm.exit, label %9

9:                                                ; preds = %6
  %10 = getelementptr inbounds i8, ptr %4, i64 1
  %11 = load i8, ptr %10, align 1, !tbaa !11
  %12 = icmp eq i8 %11, 47
  br i1 %12, label %13, label %_ZN12_GLOBAL__N_125find_root_directory_startEPKcmRm.exit

13:                                               ; preds = %9
  %14 = icmp eq i64 %3, 2
  br i1 %14, label %_ZN12_GLOBAL__N_125find_root_directory_startEPKcmRm.exit, label %15

15:                                               ; preds = %13
  %16 = getelementptr inbounds i8, ptr %4, i64 2
  %17 = load i8, ptr %16, align 1, !tbaa !11
  %18 = icmp eq i8 %17, 47
  br i1 %18, label %_ZN12_GLOBAL__N_125find_root_directory_startEPKcmRm.exit, label %19

19:                                               ; preds = %15
  %20 = add i64 %3, -2
  %21 = tail call noundef ptr @memchr(ptr noundef nonnull %16, i32 noundef 47, i64 noundef %20) #22
  %.not.i.i = icmp eq ptr %21, null
  %22 = ptrtoint ptr %21 to i64
  %23 = ptrtoint ptr %16 to i64
  %24 = sub i64 %22, %23
  %.0.i.i = select i1 %.not.i.i, i64 %20, i64 %24, !prof !14
  %25 = add i64 %.0.i.i, 2
  br label %_ZN12_GLOBAL__N_125find_root_directory_startEPKcmRm.exit

_ZN12_GLOBAL__N_125find_root_directory_startEPKcmRm.exit: ; preds = %13, %19, %1, %6, %9, %15
  %.0 = phi i64 [ 0, %1 ], [ 0, %15 ], [ 0, %9 ], [ 0, %6 ], [ %25, %19 ], [ 2, %13 ]
  %umin.i = tail call i64 @llvm.umin.i64(i64 %3, i64 %.0)
  br label %26

26:                                               ; preds = %28, %_ZN12_GLOBAL__N_125find_root_directory_startEPKcmRm.exit
  %.0.i = phi i64 [ %3, %_ZN12_GLOBAL__N_125find_root_directory_startEPKcmRm.exit ], [ %29, %28 ]
  %27 = icmp ugt i64 %.0.i, %.0
  br i1 %27, label %28, label %_ZN12_GLOBAL__N_118find_filename_sizeERKNSt7__cxx1112basic_stringIcSt11char_traitsIcESaIcEEEmm.exit

28:                                               ; preds = %26
  %29 = add i64 %.0.i, -1
  %30 = getelementptr inbounds nuw i8, ptr %4, i64 %29
  %31 = load i8, ptr %30, align 1, !tbaa !11
  %32 = icmp eq i8 %31, 47
  br i1 %32, label %_ZN12_GLOBAL__N_118find_filename_sizeERKNSt7__cxx1112basic_stringIcSt11char_traitsIcESaIcEEEmm.exit, label %26, !llvm.loop !17

_ZN12_GLOBAL__N_118find_filename_sizeERKNSt7__cxx1112basic_stringIcSt11char_traitsIcESaIcEEEmm.exit: ; preds = %26, %28
  %.0.lcssa.i = phi i64 [ %.0.i, %28 ], [ %umin.i, %26 ]
  %33 = sub i64 %3, %.0.lcssa.i
  %.not = icmp eq i64 %3, %.0.lcssa.i
  br i1 %.not, label %.thread, label %34

34:                                               ; preds = %_ZN12_GLOBAL__N_118find_filename_sizeERKNSt7__cxx1112basic_stringIcSt11char_traitsIcESaIcEEEmm.exit
  %35 = getelementptr i8, ptr %4, i64 %.0.lcssa.i
  %36 = load i8, ptr %35, align 1, !tbaa !11
  %37 = icmp eq i8 %36, 46
  br i1 %37, label %38, label %.preheader

38:                                               ; preds = %34
  switch i64 %33, label %.preheader [
    i64 1, label %.thread
    i64 2, label %39
  ]

39:                                               ; preds = %38
  %40 = getelementptr i8, ptr %35, i64 1
  %41 = load i8, ptr %40, align 1, !tbaa !11
  %42 = icmp eq i8 %41, 46
  br i1 %42, label %.thread, label %.preheader

.preheader:                                       ; preds = %38, %39, %34
  br label %43

43:                                               ; preds = %.preheader, %45
  %.025 = phi i64 [ %46, %45 ], [ %3, %.preheader ]
  %44 = icmp ugt i64 %.025, %.0.lcssa.i
  br i1 %44, label %45, label %.thread

45:                                               ; preds = %43
  %46 = add i64 %.025, -1
  %47 = getelementptr inbounds nuw i8, ptr %4, i64 %46
  %48 = load i8, ptr %47, align 1, !tbaa !11
  %49 = icmp eq i8 %48, 46
  br i1 %49, label %50, label %43, !llvm.loop !48

50:                                               ; preds = %45
  %.not29 = icmp ugt i64 %46, %.0.lcssa.i
  %51 = sub i64 %3, %46
  br i1 %.not29, label %52, label %.thread

.thread:                                          ; preds = %43, %38, %50, %39, %_ZN12_GLOBAL__N_118find_filename_sizeERKNSt7__cxx1112basic_stringIcSt11char_traitsIcESaIcEEEmm.exit
  br label %52

52:                                               ; preds = %50, %.thread
  %.127 = phi i64 [ 0, %.thread ], [ %51, %50 ]
  ret i64 %.127
}